; ModuleID = '15/1650.c'
source_filename = "15/1650.c"
target datalayout = "e-m:e-p270:32:32-p271:32:32-p272:64:64-i64:64-f80:128-n8:16:32:64-S128"
target triple = "x86_64-pc-linux-gnu"

@.str = private unnamed_addr constant [3 x i8] c"%d\00", align 1

; Function Attrs: noinline nounwind uwtable
define dso_local i32 @main() #0 {
  %1 = alloca i32, align 4
  %2 = alloca i32, align 4
  %3 = alloca [100000 x i32], align 16
  %4 = alloca i32, align 4
  %5 = alloca i32, align 4
  %6 = alloca i32, align 4
  %7 = alloca i32, align 4
  %8 = alloca i32, align 4
  %9 = alloca i32, align 4
  %10 = alloca i32, align 4
  %11 = alloca i32, align 4
  %12 = alloca i32, align 4
  %13 = alloca i32, align 4
  store i32 0, i32* %1, align 4
  store i32 0, i32* %4, align 4
  store i32 0, i32* %6, align 4
  %14 = call i32 (i8*, ...) @__isoc99_scanf(i8* getelementptr inbounds ([3 x i8], [3 x i8]* @.str, i64 0, i64 0), i32* %2)
  store i32 0, i32* %9, align 4
  br label %15

15:                                               ; preds = %40, %0
  %16 = load i32, i32* %9, align 4
  %17 = load i32, i32* %2, align 4
  %18 = load i32, i32* %2, align 4
  %19 = mul nsw i32 %17, %18
  %20 = icmp slt i32 %16, %19
  br i1 %20, label %21, label %43

21:                                               ; preds = %15
  %22 = load i32, i32* %9, align 4
  %23 = sext i32 %22 to i64
  %24 = getelementptr inbounds [100000 x i32], [100000 x i32]* %3, i64 0, i64 %23
  %25 = call i32 (i8*, ...) @__isoc99_scanf(i8* getelementptr inbounds ([3 x i8], [3 x i8]* @.str, i64 0, i64 0), i32* %24)
  %26 = load i32, i32* %9, align 4
  %27 = sext i32 %26 to i64
  %28 = getelementptr inbounds [100000 x i32], [100000 x i32]* %3, i64 0, i64 %27
  %29 = load i32, i32* %28, align 4
  %30 = icmp eq i32 %29, 0
  br i1 %30, label %31, label %39

31:                                               ; preds = %21
  %32 = load i32, i32* %4, align 4
  %33 = add nsw i32 %32, 1
  store i32 %33, i32* %4, align 4
  %34 = load i32, i32* %4, align 4
  %35 = icmp eq i32 %34, 1
  br i1 %35, label %36, label %38

36:                                               ; preds = %31
  %37 = load i32, i32* %9, align 4
  store i32 %37, i32* %7, align 4
  br label %38

38:                                               ; preds = %36, %31
  br label %39

39:                                               ; preds = %38, %21
  br label %40

40:                                               ; preds = %39
  %41 = load i32, i32* %9, align 4
  %42 = add nsw i32 %41, 1
  store i32 %42, i32* %9, align 4
  br label %15

43:                                               ; preds = %15
  store i32 0, i32* %9, align 4
  br label %44

44:                                               ; preds = %66, %43
  %45 = load i32, i32* %9, align 4
  %46 = load i32, i32* %2, align 4
  %47 = load i32, i32* %2, align 4
  %48 = mul nsw i32 %46, %47
  %49 = icmp slt i32 %45, %48
  br i1 %49, label %50, label %69

50:                                               ; preds = %44
  %51 = load i32, i32* %9, align 4
  %52 = sext i32 %51 to i64
  %53 = getelementptr inbounds [100000 x i32], [100000 x i32]* %3, i64 0, i64 %52
  %54 = load i32, i32* %53, align 4
  %55 = icmp eq i32 %54, 0
  br i1 %55, label %56, label %65

56:                                               ; preds = %50
  %57 = load i32, i32* %6, align 4
  %58 = add nsw i32 %57, 1
  store i32 %58, i32* %6, align 4
  %59 = load i32, i32* %6, align 4
  %60 = load i32, i32* %4, align 4
  %61 = icmp eq i32 %59, %60
  br i1 %61, label %62, label %64

62:                                               ; preds = %56
  %63 = load i32, i32* %9, align 4
  store i32 %63, i32* %8, align 4
  br label %64

64:                                               ; preds = %62, %56
  br label %65

65:                                               ; preds = %64, %50
  br label %66

66:                                               ; preds = %65
  %67 = load i32, i32* %9, align 4
  %68 = add nsw i32 %67, 1
  store i32 %68, i32* %9, align 4
  br label %44

69:                                               ; preds = %44
  %70 = load i32, i32* %7, align 4
  %71 = load i32, i32* %2, align 4
  %72 = sdiv i32 %70, %71
  store i32 %72, i32* %10, align 4
  %73 = load i32, i32* %7, align 4
  %74 = load i32, i32* %2, align 4
  %75 = srem i32 %73, %74
  store i32 %75, i32* %12, align 4
  %76 = load i32, i32* %8, align 4
  %77 = load i32, i32* %2, align 4
  %78 = sdiv i32 %76, %77
  store i32 %78, i32* %11, align 4
  %79 = load i32, i32* %8, align 4
  %80 = load i32, i32* %2, align 4
  %81 = srem i32 %79, %80
  store i32 %81, i32* %13, align 4
  %82 = load i32, i32* %13, align 4
  %83 = load i32, i32* %12, align 4
  %84 = sub nsw i32 %82, %83
  %85 = add nsw i32 %84, 1
  %86 = load i32, i32* %11, align 4
  %87 = load i32, i32* %10, align 4
  %88 = sub nsw i32 %86, %87
  %89 = add nsw i32 %88, 1
  %90 = mul nsw i32 %85, %89
  %91 = load i32, i32* %4, align 4
  %92 = sub nsw i32 %90, %91
  store i32 %92, i32* %5, align 4
  %93 = load i32, i32* %5, align 4
  %94 = call i32 (i8*, ...) @printf(i8* getelementptr inbounds ([3 x i8], [3 x i8]* @.str, i64 0, i64 0), i32 %93)
  ret i32 0
}

declare dso_local i32 @__isoc99_scanf(i8*, ...) #1

declare dso_local i32 @printf(i8*, ...) #1


!llvm.module.flags = !{!0}
!llvm.ident = !{!1}

!0 = !{i32 1, !"wchar_size", i32 4}
!1 = !{!"clang version 10.0.0-4ubuntu1 "}
